target datalayout = "e-m:e-p270:32:32-p271:32:32-p272:64:64-i64:64-i128:128-f80:128-n8:16:32:64-S128"
target triple = "x86_64-pc-linux-gnu"

%struct.H5VL_loc_params_t = type { i32, i32, %union.anon.7 }
%union.anon.7 = type { %struct.H5VL_loc_by_idx }
%struct.H5VL_loc_by_idx = type { ptr, i32, i32, i64, i64 }

@.str.2 = private unnamed_addr constant [101 x i8] c"generated/home/dtcxzyw/WorkSpace/Projects/compilers/llvm-opt-benchmark/bench/hdf5/hdf5/src/H5VLint.c\00", align 1
@H5E_BADTYPE_g = external global i64, align 8
@H5E_ARGS_g = external global i64, align 8
@.str.70 = private unnamed_addr constant [28 x i8] c"invalid location identifier\00", align 1
@__func__.H5VL_setup_self_args = private unnamed_addr constant [21 x i8] c"H5VL_setup_self_args\00", align 1

; Function Attrs: nounwind uwtable
define i32 @H5VL_setup_self_args(i64 noundef %0, ptr noundef %1, ptr noundef %2) #0 {
  %4 = alloca i64, align 8
  %5 = alloca ptr, align 8
  %6 = alloca ptr, align 8
  %7 = alloca i32, align 4
  %8 = alloca i8, align 1
  store i64 %0, ptr %4, align 8
  store ptr %1, ptr %5, align 8
  store ptr %2, ptr %6, align 8
  store i32 0, ptr %7, align 4
  store i8 0, ptr %8, align 1
  %9 = load i64, ptr %4, align 8
  %10 = call ptr @H5VL_vol_object(i64 noundef %9)
  %11 = load ptr, ptr %5, align 8
  store ptr %10, ptr %11, align 8
  %12 = icmp eq ptr null, %10
  br i1 %12, label %13, label %28

13:                                               ; preds = %3
  br label %14

14:                                               ; preds = %13
  br label %15

15:                                               ; preds = %14
  br label %16

16:                                               ; preds = %15
  %17 = load i64, ptr @H5E_ARGS_g, align 8
  %18 = load i64, ptr @H5E_BADTYPE_g, align 8
  %19 = call i32 (ptr, ptr, i32, i64, i64, ptr, ...) @H5E_printf_stack(ptr noundef @.str.2, ptr noundef @__func__.H5VL_setup_self_args, i32 noundef 2634, i64 noundef %17, i64 noundef %18, ptr noundef @.str.70)
  br label %20

20:                                               ; preds = %16
  store i8 1, ptr %8, align 1
  %21 = load i8, ptr %8, align 1
  %22 = trunc i8 %21 to i1
  %23 = zext i1 %22 to i8
  store i8 %23, ptr %8, align 1
  br label %24

24:                                               ; preds = %20
  br label %25

25:                                               ; preds = %24
  store i32 -1, ptr %7, align 4
  br label %35

26:                                               ; No predecessors!
  br label %27

27:                                               ; preds = %26
  br label %28

28:                                               ; preds = %27, %3
  %29 = load ptr, ptr %6, align 8
  %30 = getelementptr inbounds %struct.H5VL_loc_params_t, ptr %29, i32 0, i32 1
  store i32 0, ptr %30, align 4
  %31 = load i64, ptr %4, align 8
  %32 = call i32 @H5I_get_type(i64 noundef %31)
  %33 = load ptr, ptr %6, align 8
  %34 = getelementptr inbounds %struct.H5VL_loc_params_t, ptr %33, i32 0, i32 0
  store i32 %32, ptr %34, align 8
  br label %35

35:                                               ; preds = %28, %25
  %36 = load i32, ptr %7, align 4
  ret i32 %36
}